target datalayout = "e-m:e-p270:32:32-p271:32:32-p272:64:64-i64:64-i128:128-f80:128-n8:16:32:64-S128"
target triple = "x86_64-pc-linux-gnu"

; Function Attrs: nounwind uwtable
define i32 @rfmtdate(i64 noundef %0, ptr noundef %1, ptr noundef %2) #0 {
  %4 = alloca i32, align 4
  %5 = alloca i64, align 8
  %6 = alloca ptr, align 8
  %7 = alloca ptr, align 8
  store i64 %0, ptr %5, align 8
  store ptr %1, ptr %6, align 8
  store ptr %2, ptr %7, align 8
  %8 = call ptr @__errno_location() #8
  store i32 0, ptr %8, align 4
  %9 = load i64, ptr %5, align 8
  %10 = load ptr, ptr %6, align 8
  %11 = load ptr, ptr %7, align 8
  %12 = call i32 @PGTYPESdate_fmt_asc(i64 noundef %9, ptr noundef %10, ptr noundef %11)
  %13 = icmp eq i32 %12, 0
  br i1 %13, label %14, label %15

14:                                               ; preds = %3
  store i32 0, ptr %4, align 4
  br label %21

15:                                               ; preds = %3
  %16 = call ptr @__errno_location() #8
  %17 = load i32, ptr %16, align 4
  %18 = icmp eq i32 %17, 12
  br i1 %18, label %19, label %20

19:                                               ; preds = %15
  store i32 -1211, ptr %4, align 4
  br label %21

20:                                               ; preds = %15
  store i32 -1210, ptr %4, align 4
  br label %21

21:                                               ; preds = %20, %19, %14
  %22 = load i32, ptr %4, align 4
  ret i32 %22
}