; Function Attrs: nounwind uwtable
define range(i32 -1211, 1) i32 @rfmtdate(i64 noundef %0, ptr noundef %1, ptr noundef %2) local_unnamed_addr #0 {
  %4 = tail call ptr @__errno_location() #15
  store i32 0, ptr %4, align 4
  %5 = tail call i32 @PGTYPESdate_fmt_asc(i64 noundef %0, ptr noundef %1, ptr noundef %2) #16
  %6 = icmp eq i32 %5, 0
  br i1 %6, label %10, label %7

7:                                                ; preds = %3
  %8 = load i32, ptr %4, align 4
  %9 = icmp eq i32 %8, 12
  %. = select i1 %9, i32 -1211, i32 -1210
  br label %10

10:                                               ; preds = %7, %3
  %.0 = phi i32 [ 0, %3 ], [ %., %7 ]
  ret i32 %.0
}